target datalayout = "e-m:e-p270:32:32-p271:32:32-p272:64:64-i64:64-i128:128-f80:128-n8:16:32:64-S128"
target triple = "x86_64-pc-linux-gnu"

%struct.pollfd = type { i32, i16, i16 }

; Function Attrs: nounwind uwtable
define i32 @BIO_socket_wait(i32 noundef %0, i32 noundef %1, i64 noundef %2) #0 {
  %4 = alloca i32, align 4
  %5 = alloca i32, align 4
  %6 = alloca i32, align 4
  %7 = alloca i64, align 8
  %8 = alloca %struct.pollfd, align 4
  %9 = alloca i64, align 8
  %10 = alloca i32, align 4
  store i32 %0, ptr %5, align 4, !tbaa !10
  store i32 %1, ptr %6, align 4, !tbaa !10
  store i64 %2, ptr %7, align 8, !tbaa !12
  call void @llvm.lifetime.start.p0(i64 8, ptr %8) #8
  call void @llvm.lifetime.start.p0(i64 8, ptr %9) #8
  %11 = load i32, ptr %5, align 4, !tbaa !10
  %12 = icmp slt i32 %11, 0
  br i1 %12, label %13, label %14

13:                                               ; preds = %3
  store i32 -1, ptr %4, align 4
  store i32 1, ptr %10, align 4
  br label %38

14:                                               ; preds = %3
  %15 = load i64, ptr %7, align 8, !tbaa !12
  %16 = icmp eq i64 %15, 0
  br i1 %16, label %17, label %18

17:                                               ; preds = %14
  store i32 1, ptr %4, align 4
  store i32 1, ptr %10, align 4
  br label %38

18:                                               ; preds = %14
  %19 = call i64 @time(ptr noundef null) #8
  store i64 %19, ptr %9, align 8, !tbaa !12
  %20 = load i64, ptr %7, align 8, !tbaa !12
  %21 = load i64, ptr %9, align 8, !tbaa !12
  %22 = icmp slt i64 %20, %21
  br i1 %22, label %23, label %24

23:                                               ; preds = %18
  store i32 0, ptr %4, align 4
  store i32 1, ptr %10, align 4
  br label %38

24:                                               ; preds = %18
  %25 = load i32, ptr %5, align 4, !tbaa !10
  %26 = getelementptr inbounds nuw %struct.pollfd, ptr %8, i32 0, i32 0
  store i32 %25, ptr %26, align 4, !tbaa !24
  %27 = load i32, ptr %6, align 4, !tbaa !10
  %28 = icmp ne i32 %27, 0
  %29 = select i1 %28, i32 1, i32 4
  %30 = trunc i32 %29 to i16
  %31 = getelementptr inbounds nuw %struct.pollfd, ptr %8, i32 0, i32 1
  store i16 %30, ptr %31, align 4, !tbaa !26
  %32 = load i64, ptr %7, align 8, !tbaa !12
  %33 = load i64, ptr %9, align 8, !tbaa !12
  %34 = sub nsw i64 %32, %33
  %35 = trunc i64 %34 to i32
  %36 = mul nsw i32 %35, 1000
  %37 = call i32 @poll(ptr noundef %8, i64 noundef 1, i32 noundef %36)
  store i32 %37, ptr %4, align 4
  store i32 1, ptr %10, align 4
  br label %38

38:                                               ; preds = %24, %23, %17, %13
  call void @llvm.lifetime.end.p0(i64 8, ptr %9) #8
  call void @llvm.lifetime.end.p0(i64 8, ptr %8) #8
  %39 = load i32, ptr %4, align 4
  ret i32 %39
}