; Function Attrs: nounwind uwtable
define i32 @BIO_socket_wait(i32 noundef %0, i32 noundef %1, i64 noundef %2) local_unnamed_addr #0 {
  %4 = alloca %struct.pollfd, align 4
  call void @llvm.lifetime.start.p0(i64 8, ptr nonnull %4) #9
  %5 = icmp slt i32 %0, 0
  br i1 %5, label %18, label %6

6:                                                ; preds = %3
  %7 = icmp eq i64 %2, 0
  br i1 %7, label %18, label %8

8:                                                ; preds = %6
  %9 = tail call i64 @time(ptr noundef null) #9
  %10 = icmp slt i64 %2, %9
  br i1 %10, label %18, label %11

11:                                               ; preds = %8
  store i32 %0, ptr %4, align 4, !tbaa !16
  %.not = icmp eq i32 %1, 0
  %12 = select i1 %.not, i16 4, i16 1
  %13 = getelementptr inbounds nuw i8, ptr %4, i64 4
  store i16 %12, ptr %13, align 4, !tbaa !18
  %14 = sub nsw i64 %2, %9
  %15 = trunc i64 %14 to i32
  %16 = mul nsw i32 %15, 1000
  %17 = call i32 @poll(ptr noundef nonnull %4, i64 noundef 1, i32 noundef %16) #9
  br label %18

18:                                               ; preds = %8, %6, %3, %11
  %.0 = phi i32 [ %17, %11 ], [ -1, %3 ], [ 1, %6 ], [ 0, %8 ]
  call void @llvm.lifetime.end.p0(i64 8, ptr nonnull %4) #9
  ret i32 %.0
}